target datalayout = "e-m:e-p270:32:32-p271:32:32-p272:64:64-i64:64-i128:128-f80:128-n8:16:32:64-S128"
target triple = "x86_64-pc-linux-gnu"

%struct.lxb_html_token_t = type { ptr, ptr, i64, i64, ptr, ptr, ptr, ptr, ptr, i64, i64, i32 }

; Function Attrs: nounwind uwtable
define hidden i32 @lxb_html_token_data_skip_one_newline_begin(ptr noundef %0) #0 {
  %2 = alloca ptr, align 8
  %3 = alloca ptr, align 8
  %4 = alloca ptr, align 8
  store ptr %0, ptr %2, align 8
  %5 = load ptr, ptr %2, align 8
  %6 = getelementptr inbounds %struct.lxb_html_token_t, ptr %5, i32 0, i32 4
  %7 = load ptr, ptr %6, align 8
  store ptr %7, ptr %3, align 8
  %8 = load ptr, ptr %2, align 8
  %9 = getelementptr inbounds %struct.lxb_html_token_t, ptr %8, i32 0, i32 5
  %10 = load ptr, ptr %9, align 8
  store ptr %10, ptr %4, align 8
  %11 = load ptr, ptr %3, align 8
  %12 = load ptr, ptr %4, align 8
  %13 = icmp ult ptr %11, %12
  br i1 %13, label %14, label %29

14:                                               ; preds = %1
  %15 = load ptr, ptr %3, align 8
  %16 = load i8, ptr %15, align 1
  %17 = zext i8 %16 to i32
  %18 = icmp eq i32 %17, 10
  br i1 %18, label %19, label %28

19:                                               ; preds = %14
  %20 = load ptr, ptr %2, align 8
  %21 = getelementptr inbounds %struct.lxb_html_token_t, ptr %20, i32 0, i32 0
  %22 = load ptr, ptr %21, align 8
  %23 = getelementptr inbounds i8, ptr %22, i32 1
  store ptr %23, ptr %21, align 8
  %24 = load ptr, ptr %2, align 8
  %25 = getelementptr inbounds %struct.lxb_html_token_t, ptr %24, i32 0, i32 4
  %26 = load ptr, ptr %25, align 8
  %27 = getelementptr inbounds i8, ptr %26, i32 1
  store ptr %27, ptr %25, align 8
  br label %28

28:                                               ; preds = %19, %14
  br label %29

29:                                               ; preds = %28, %1
  ret i32 0
}