; Function Attrs: mustprogress nofree norecurse nosync nounwind willreturn memory(read, argmem: readwrite, inaccessiblemem: none) uwtable
define hidden noundef i32 @lxb_html_token_data_skip_one_newline_begin(ptr nocapture noundef %0) local_unnamed_addr #5 {
  %2 = getelementptr inbounds i8, ptr %0, i64 32
  %3 = load ptr, ptr %2, align 8
  %4 = getelementptr inbounds i8, ptr %0, i64 40
  %5 = load ptr, ptr %4, align 8
  %6 = icmp ult ptr %3, %5
  br i1 %6, label %7, label %14

7:                                                ; preds = %1
  %8 = load i8, ptr %3, align 1
  %9 = icmp eq i8 %8, 10
  br i1 %9, label %10, label %14

10:                                               ; preds = %7
  %11 = load ptr, ptr %0, align 8
  %12 = getelementptr inbounds i8, ptr %11, i64 1
  store ptr %12, ptr %0, align 8
  %13 = getelementptr inbounds i8, ptr %3, i64 1
  store ptr %13, ptr %2, align 8
  br label %14

14:                                               ; preds = %7, %10, %1
  ret i32 0
}